; Function Attrs: mustprogress uwtable
define void @_Z12yosys_atexitv() #4 {
  %1 = load i64, ptr getelementptr inbounds nuw (i8, ptr @_Z18yosys_history_fileB5cxx11, i64 8), align 8, !tbaa !17
  %2 = icmp eq i64 %1, 0
  br i1 %2, label %16, label %3

3:                                                ; preds = %0
  %4 = load i32, ptr @yosys_history_offset, align 4, !tbaa !18
  %5 = icmp sgt i32 %4, 0
  %6 = load ptr, ptr @_Z18yosys_history_fileB5cxx11, align 8, !tbaa !14
  br i1 %5, label %7, label %14

7:                                                ; preds = %3
  %8 = tail call i32 @history_truncate_file(ptr noundef %6, i32 noundef 100)
  %9 = tail call i32 @where_history()
  %10 = load i32, ptr @yosys_history_offset, align 4, !tbaa !18
  %11 = sub nsw i32 %9, %10
  %12 = load ptr, ptr @_Z18yosys_history_fileB5cxx11, align 8, !tbaa !14
  %13 = tail call i32 @append_history(i32 noundef %11, ptr noundef %12)
  br label %16

14:                                               ; preds = %3
  %15 = tail call i32 @write_history(ptr noundef %6)
  br label %16

16:                                               ; preds = %7, %14, %0
  tail call void @clear_history()
  %17 = tail call ptr @history_list()
  %.not = icmp eq ptr %17, null
  br i1 %.not, label %19, label %18

18:                                               ; preds = %16
  tail call void @free(ptr noundef nonnull %17) #38
  br label %19

19:                                               ; preds = %18, %16
  ret void
}